target datalayout = "e-m:e-p270:32:32-p271:32:32-p272:64:64-i64:64-i128:128-f80:128-n8:16:32:64-S128"
target triple = "x86_64-pc-linux-gnu"

%struct.IOStreamMemData = type { ptr, ptr, ptr }
%struct.IOStreamDynamicMemData = type { ptr, %struct.IOStreamMemData, ptr }

; Function Attrs: nounwind uwtable
define internal i64 @mem_size(ptr noundef %0) #0 {
  %2 = alloca ptr, align 8
  %3 = alloca ptr, align 8
  store ptr %0, ptr %2, align 8
  call void @llvm.lifetime.start.p0(i64 8, ptr %3) #11
  %4 = load ptr, ptr %2, align 8
  store ptr %4, ptr %3, align 8
  %5 = load ptr, ptr %3, align 8
  %6 = getelementptr inbounds nuw %struct.IOStreamMemData, ptr %5, i32 0, i32 2
  %7 = load ptr, ptr %6, align 8
  %8 = load ptr, ptr %3, align 8
  %9 = getelementptr inbounds nuw %struct.IOStreamMemData, ptr %8, i32 0, i32 0
  %10 = load ptr, ptr %9, align 8
  %11 = ptrtoint ptr %7 to i64
  %12 = ptrtoint ptr %10 to i64
  %13 = sub i64 %11, %12
  call void @llvm.lifetime.end.p0(i64 8, ptr %3) #11
  ret i64 %13
}

; Function Attrs: nounwind uwtable
define internal i64 @dynamic_mem_size(ptr noundef %0) #0 {
  %2 = alloca ptr, align 8
  %3 = alloca ptr, align 8
  store ptr %0, ptr %2, align 8
  call void @llvm.lifetime.start.p0(i64 8, ptr %3) #11
  %4 = load ptr, ptr %2, align 8
  store ptr %4, ptr %3, align 8
  %5 = load ptr, ptr %3, align 8
  %6 = getelementptr inbounds nuw %struct.IOStreamDynamicMemData, ptr %5, i32 0, i32 1
  %7 = call i64 @mem_size(ptr noundef %6)
  call void @llvm.lifetime.end.p0(i64 8, ptr %3) #11
  ret i64 %7
}